; Function Attrs: mustprogress nofree norecurse nounwind willreturn memory(argmem: readwrite, inaccessiblemem: readwrite) uwtable
define hidden noundef zeroext i1 @_ZNK14ZPageAllocator16is_alloc_allowedEm(ptr noundef nonnull align 8 dereferenceable(609) %0, i64 noundef %1) local_unnamed_addr #5 align 2 {
  %3 = getelementptr inbounds i8, ptr %0, i64 416
  %4 = load volatile i64, ptr %3, align 8
  %5 = getelementptr inbounds i8, ptr %0, i64 440
  %6 = load volatile i64, ptr %5, align 8
  %7 = getelementptr inbounds i8, ptr %0, i64 432
  %8 = load volatile i64, ptr %7, align 8
  %9 = add i64 %6, %8
  %10 = sub i64 %4, %9
  %11 = icmp uge i64 %10, %1
  ret i1 %11
}